target datalayout = "e-m:e-p270:32:32-p271:32:32-p272:64:64-i64:64-i128:128-f80:128-n8:16:32:64-S128"
target triple = "x86_64-pc-linux-gnu"

%struct.nameData = type { [64 x i8] }
%struct.RelationData = type { %struct.RelFileLocator, ptr, i32, i32, i8, i8, i8, i8, i8, i32, i32, i32, i32, ptr, ptr, i32, %struct.LockInfoData, ptr, ptr, ptr, ptr, ptr, i8, ptr, ptr, ptr, ptr, ptr, ptr, i32, ptr, i8, ptr, ptr, i32, i8, i32, ptr, i8, ptr, ptr, ptr, ptr, ptr, ptr, ptr, i32, ptr, ptr, ptr, ptr, ptr, ptr, ptr, ptr, ptr, ptr, ptr, ptr, ptr, ptr, ptr, ptr, ptr, ptr, ptr, i32, i8, ptr }
%struct.RelFileLocator = type { i32, i32, i32 }
%struct.LockInfoData = type { %struct.LockRelId }
%struct.LockRelId = type { i32, i32 }
%struct.FormData_pg_class = type { i32, %struct.nameData, i32, i32, i32, i32, i32, i32, i32, i32, float, i32, i32, i8, i8, i8, i8, i16, i16, i8, i8, i8, i8, i8, i8, i8, i8, i32, i32, i32 }
%struct.HeapTupleData = type { i32, %struct.ItemPointerData, i32, ptr }
%struct.ItemPointerData = type { %struct.BlockIdData, i16 }
%struct.BlockIdData = type { i16, i16 }

@.str.1 = private unnamed_addr constant [8 x i8] c"alter.c\00", align 1
@.str.4 = private unnamed_addr constant [50 x i8] c"cache lookup failed for object %u of catalog \22%s\22\00", align 1
@__func__.AlterObjectOwner_internal = private unnamed_addr constant [26 x i8] c"AlterObjectOwner_internal\00", align 1
@.str.5 = private unnamed_addr constant [3 x i8] c"%u\00", align 1
@object_access_hook = external global ptr, align 8

; Function Attrs: inlinehint nounwind uwtable
define internal i64 @PointerGetDatum(ptr noundef %0) #5 {
  %2 = alloca ptr, align 8
  store ptr %0, ptr %2, align 8
  %3 = load ptr, ptr %2, align 8
  %4 = ptrtoint ptr %3 to i64
  ret i64 %4
}

; Function Attrs: inlinehint nounwind uwtable
define internal ptr @DatumGetPointer(i64 noundef %0) #5 {
  %2 = alloca i64, align 8
  store i64 %0, ptr %2, align 8
  %3 = load i64, ptr %2, align 8
  %4 = inttoptr i64 %3 to ptr
  ret ptr %4
}

; Function Attrs: inlinehint nounwind uwtable
define internal i64 @ObjectIdGetDatum(i32 noundef %0) #5 {
  %2 = alloca i32, align 4
  store i32 %0, ptr %2, align 4
  %3 = load i32, ptr %2, align 4
  %4 = zext i32 %3 to i64
  ret i64 %4
}

; Function Attrs: inlinehint nounwind uwtable
define internal ptr @DatumGetName(i64 noundef %0) #5 {
  %2 = alloca i64, align 8
  store i64 %0, ptr %2, align 8
  %3 = load i64, ptr %2, align 8
  %4 = call ptr @DatumGetPointer(i64 noundef %3)
  ret ptr %4
}

; Function Attrs: inlinehint nounwind uwtable
define internal i32 @DatumGetObjectId(i64 noundef %0) #5 {
  %2 = alloca i64, align 8
  store i64 %0, ptr %2, align 8
  %3 = load i64, ptr %2, align 8
  %4 = trunc i64 %3 to i32
  ret i32 %4
}

; Function Attrs: nounwind uwtable
define dso_local void @AlterObjectOwner_internal(i32 noundef %0, i32 noundef %1, i32 noundef %2) #0 {
  %4 = alloca i32, align 4
  %5 = alloca i32, align 4
  %6 = alloca i32, align 4
  %7 = alloca i32, align 4
  %8 = alloca i16, align 2
  %9 = alloca i16, align 2
  %10 = alloca i16, align 2
  %11 = alloca i16, align 2
  %12 = alloca i16, align 2
  %13 = alloca ptr, align 8
  %14 = alloca ptr, align 8
  %15 = alloca i64, align 8
  %16 = alloca i8, align 1
  %17 = alloca i32, align 4
  %18 = alloca i32, align 4
  %19 = alloca i16, align 2
  %20 = alloca ptr, align 8
  %21 = alloca ptr, align 8
  %22 = alloca ptr, align 8
  %23 = alloca ptr, align 8
  %24 = alloca ptr, align 8
  %25 = alloca [64 x i8], align 16
  %26 = alloca i32, align 4
  %27 = alloca ptr, align 8
  store i32 %0, ptr %4, align 4
  store i32 %1, ptr %5, align 4
  store i32 %2, ptr %6, align 4
  call void @llvm.lifetime.start.p0(i64 4, ptr %7) #6
  %28 = load i32, ptr %4, align 4
  %29 = icmp eq i32 %28, 2613
  br i1 %29, label %30, label %31

30:                                               ; preds = %3
  br label %33

31:                                               ; preds = %3
  %32 = load i32, ptr %4, align 4
  br label %33

33:                                               ; preds = %31, %30
  %34 = phi i32 [ 2995, %30 ], [ %32, %31 ]
  store i32 %34, ptr %7, align 4
  call void @llvm.lifetime.start.p0(i64 2, ptr %8) #6
  %35 = load i32, ptr %7, align 4
  %36 = call signext i16 @get_object_attnum_oid(i32 noundef %35)
  store i16 %36, ptr %8, align 2
  call void @llvm.lifetime.start.p0(i64 2, ptr %9) #6
  %37 = load i32, ptr %7, align 4
  %38 = call signext i16 @get_object_attnum_owner(i32 noundef %37)
  store i16 %38, ptr %9, align 2
  call void @llvm.lifetime.start.p0(i64 2, ptr %10) #6
  %39 = load i32, ptr %7, align 4
  %40 = call signext i16 @get_object_attnum_namespace(i32 noundef %39)
  store i16 %40, ptr %10, align 2
  call void @llvm.lifetime.start.p0(i64 2, ptr %11) #6
  %41 = load i32, ptr %7, align 4
  %42 = call signext i16 @get_object_attnum_acl(i32 noundef %41)
  store i16 %42, ptr %11, align 2
  call void @llvm.lifetime.start.p0(i64 2, ptr %12) #6
  %43 = load i32, ptr %7, align 4
  %44 = call signext i16 @get_object_attnum_name(i32 noundef %43)
  store i16 %44, ptr %12, align 2
  call void @llvm.lifetime.start.p0(i64 8, ptr %13) #6
  call void @llvm.lifetime.start.p0(i64 8, ptr %14) #6
  call void @llvm.lifetime.start.p0(i64 8, ptr %15) #6
  call void @llvm.lifetime.start.p0(i64 1, ptr %16) #6
  call void @llvm.lifetime.start.p0(i64 4, ptr %17) #6
  call void @llvm.lifetime.start.p0(i64 4, ptr %18) #6
  store i32 0, ptr %18, align 4
  %45 = load i32, ptr %7, align 4
  %46 = call ptr @table_open(i32 noundef %45, i32 noundef 3)
  store ptr %46, ptr %13, align 8
  %47 = load ptr, ptr %13, align 8
  %48 = load i16, ptr %8, align 2
  %49 = load i32, ptr %5, align 4
  %50 = call ptr @get_catalog_object_by_oid_extended(ptr noundef %47, i16 noundef signext %48, i32 noundef %49, i1 noundef zeroext true)
  store ptr %50, ptr %14, align 8
  %51 = load ptr, ptr %14, align 8
  %52 = icmp eq ptr %51, null
  br i1 %52, label %53, label %71

53:                                               ; preds = %33
  br label %54

54:                                               ; preds = %53
  br i1 true, label %55, label %57

55:                                               ; preds = %54
  %56 = call zeroext i1 @errstart_cold(i32 noundef 21, ptr noundef null) #7
  br i1 %56, label %59, label %68

57:                                               ; preds = %54
  %58 = call zeroext i1 @errstart(i32 noundef 21, ptr noundef null)
  br i1 %58, label %59, label %68

59:                                               ; preds = %57, %55
  %60 = load i32, ptr %5, align 4
  %61 = load ptr, ptr %13, align 8
  %62 = getelementptr inbounds nuw %struct.RelationData, ptr %61, i32 0, i32 13
  %63 = load ptr, ptr %62, align 8
  %64 = getelementptr inbounds nuw %struct.FormData_pg_class, ptr %63, i32 0, i32 1
  %65 = getelementptr inbounds nuw %struct.nameData, ptr %64, i32 0, i32 0
  %66 = getelementptr inbounds [64 x i8], ptr %65, i64 0, i64 0
  %67 = call i32 (ptr, ...) @errmsg_internal(ptr noundef @.str.4, i32 noundef %60, ptr noundef %66)
  call void @errfinish(ptr noundef @.str.1, i32 noundef 933, ptr noundef @__func__.AlterObjectOwner_internal)
  br label %68

68:                                               ; preds = %59, %57, %55
  unreachable

69:                                               ; No predecessors!
  br label %70

70:                                               ; preds = %69
  br label %71

71:                                               ; preds = %70, %33
  %72 = load ptr, ptr %14, align 8
  %73 = load i16, ptr %9, align 2
  %74 = sext i16 %73 to i32
  %75 = load ptr, ptr %13, align 8
  %76 = getelementptr inbounds nuw %struct.RelationData, ptr %75, i32 0, i32 14
  %77 = load ptr, ptr %76, align 8
  %78 = call i64 @heap_getattr(ptr noundef %72, i32 noundef %74, ptr noundef %77, ptr noundef %16)
  store i64 %78, ptr %15, align 8
  %79 = load i64, ptr %15, align 8
  %80 = call i32 @DatumGetObjectId(i64 noundef %79)
  store i32 %80, ptr %17, align 4
  %81 = load i16, ptr %10, align 2
  %82 = sext i16 %81 to i32
  %83 = icmp ne i32 %82, 0
  br i1 %83, label %84, label %94

84:                                               ; preds = %71
  %85 = load ptr, ptr %14, align 8
  %86 = load i16, ptr %10, align 2
  %87 = sext i16 %86 to i32
  %88 = load ptr, ptr %13, align 8
  %89 = getelementptr inbounds nuw %struct.RelationData, ptr %88, i32 0, i32 14
  %90 = load ptr, ptr %89, align 8
  %91 = call i64 @heap_getattr(ptr noundef %85, i32 noundef %87, ptr noundef %90, ptr noundef %16)
  store i64 %91, ptr %15, align 8
  %92 = load i64, ptr %15, align 8
  %93 = call i32 @DatumGetObjectId(i64 noundef %92)
  store i32 %93, ptr %18, align 4
  br label %94

94:                                               ; preds = %84, %71
  %95 = load i32, ptr %17, align 4
  %96 = load i32, ptr %6, align 4
  %97 = icmp ne i32 %95, %96
  br i1 %97, label %98, label %236

98:                                               ; preds = %94
  call void @llvm.lifetime.start.p0(i64 2, ptr %19) #6
  call void @llvm.lifetime.start.p0(i64 8, ptr %20) #6
  call void @llvm.lifetime.start.p0(i64 8, ptr %21) #6
  call void @llvm.lifetime.start.p0(i64 8, ptr %22) #6
  call void @llvm.lifetime.start.p0(i64 8, ptr %23) #6
  %99 = call zeroext i1 @superuser()
  br i1 %99, label %147, label %100

100:                                              ; preds = %98
  %101 = call i32 @GetUserId()
  %102 = load i32, ptr %17, align 4
  %103 = call zeroext i1 @has_privs_of_role(i32 noundef %101, i32 noundef %102)
  br i1 %103, label %130, label %104

104:                                              ; preds = %100
  call void @llvm.lifetime.start.p0(i64 8, ptr %24) #6
  call void @llvm.lifetime.start.p0(i64 64, ptr %25) #6
  %105 = load i16, ptr %12, align 2
  %106 = sext i16 %105 to i32
  %107 = icmp ne i32 %106, 0
  br i1 %107, label %108, label %120

108:                                              ; preds = %104
  %109 = load ptr, ptr %14, align 8
  %110 = load i16, ptr %12, align 2
  %111 = sext i16 %110 to i32
  %112 = load ptr, ptr %13, align 8
  %113 = getelementptr inbounds nuw %struct.RelationData, ptr %112, i32 0, i32 14
  %114 = load ptr, ptr %113, align 8
  %115 = call i64 @heap_getattr(ptr noundef %109, i32 noundef %111, ptr noundef %114, ptr noundef %16)
  store i64 %115, ptr %15, align 8
  %116 = load i64, ptr %15, align 8
  %117 = call ptr @DatumGetName(i64 noundef %116)
  %118 = getelementptr inbounds nuw %struct.nameData, ptr %117, i32 0, i32 0
  %119 = getelementptr inbounds [64 x i8], ptr %118, i64 0, i64 0
  store ptr %119, ptr %24, align 8
  br label %125

120:                                              ; preds = %104
  %121 = getelementptr inbounds [64 x i8], ptr %25, i64 0, i64 0
  %122 = load i32, ptr %5, align 4
  %123 = call i32 (ptr, i64, ptr, ...) @pg_snprintf(ptr noundef %121, i64 noundef 64, ptr noundef @.str.5, i32 noundef %122)
  %124 = getelementptr inbounds [64 x i8], ptr %25, i64 0, i64 0
  store ptr %124, ptr %24, align 8
  br label %125

125:                                              ; preds = %120, %108
  %126 = load i32, ptr %7, align 4
  %127 = load i32, ptr %5, align 4
  %128 = call i32 @get_object_type(i32 noundef %126, i32 noundef %127)
  %129 = load ptr, ptr %24, align 8
  call void @aclcheck_error(i32 noundef 2, i32 noundef %128, ptr noundef %129)
  call void @llvm.lifetime.end.p0(i64 64, ptr %25) #6
  call void @llvm.lifetime.end.p0(i64 8, ptr %24) #6
  br label %130

130:                                              ; preds = %125, %100
  %131 = call i32 @GetUserId()
  %132 = load i32, ptr %6, align 4
  call void @check_can_set_role(i32 noundef %131, i32 noundef %132)
  %133 = load i32, ptr %18, align 4
  %134 = icmp ne i32 %133, 0
  br i1 %134, label %135, label %146

135:                                              ; preds = %130
  call void @llvm.lifetime.start.p0(i64 4, ptr %26) #6
  %136 = load i32, ptr %18, align 4
  %137 = load i32, ptr %6, align 4
  %138 = call i32 @object_aclcheck(i32 noundef 2615, i32 noundef %136, i32 noundef %137, i64 noundef 512)
  store i32 %138, ptr %26, align 4
  %139 = load i32, ptr %26, align 4
  %140 = icmp ne i32 %139, 0
  br i1 %140, label %141, label %145

141:                                              ; preds = %135
  %142 = load i32, ptr %26, align 4
  %143 = load i32, ptr %18, align 4
  %144 = call ptr @get_namespace_name(i32 noundef %143)
  call void @aclcheck_error(i32 noundef %142, i32 noundef 36, ptr noundef %144)
  br label %145

145:                                              ; preds = %141, %135
  call void @llvm.lifetime.end.p0(i64 4, ptr %26) #6
  br label %146

146:                                              ; preds = %145, %130
  br label %147

147:                                              ; preds = %146, %98
  %148 = load ptr, ptr %13, align 8
  %149 = getelementptr inbounds nuw %struct.RelationData, ptr %148, i32 0, i32 13
  %150 = load ptr, ptr %149, align 8
  %151 = getelementptr inbounds nuw %struct.FormData_pg_class, ptr %150, i32 0, i32 17
  %152 = load i16, ptr %151, align 4
  store i16 %152, ptr %19, align 2
  %153 = load i16, ptr %19, align 2
  %154 = sext i16 %153 to i64
  %155 = mul i64 %154, 8
  %156 = call ptr @palloc0(i64 noundef %155)
  store ptr %156, ptr %21, align 8
  %157 = load i16, ptr %19, align 2
  %158 = sext i16 %157 to i64
  %159 = mul i64 %158, 1
  %160 = call ptr @palloc0(i64 noundef %159)
  store ptr %160, ptr %22, align 8
  %161 = load i16, ptr %19, align 2
  %162 = sext i16 %161 to i64
  %163 = mul i64 %162, 1
  %164 = call ptr @palloc0(i64 noundef %163)
  store ptr %164, ptr %23, align 8
  %165 = load i32, ptr %6, align 4
  %166 = call i64 @ObjectIdGetDatum(i32 noundef %165)
  %167 = load ptr, ptr %21, align 8
  %168 = load i16, ptr %9, align 2
  %169 = sext i16 %168 to i32
  %170 = sub i32 %169, 1
  %171 = sext i32 %170 to i64
  %172 = getelementptr inbounds i64, ptr %167, i64 %171
  store i64 %166, ptr %172, align 8
  %173 = load ptr, ptr %23, align 8
  %174 = load i16, ptr %9, align 2
  %175 = sext i16 %174 to i32
  %176 = sub i32 %175, 1
  %177 = sext i32 %176 to i64
  %178 = getelementptr inbounds i8, ptr %173, i64 %177
  store i8 1, ptr %178, align 1
  %179 = load i16, ptr %11, align 2
  %180 = sext i16 %179 to i32
  %181 = icmp ne i32 %180, 0
  br i1 %181, label %182, label %214

182:                                              ; preds = %147
  %183 = load ptr, ptr %14, align 8
  %184 = load i16, ptr %11, align 2
  %185 = sext i16 %184 to i32
  %186 = load ptr, ptr %13, align 8
  %187 = getelementptr inbounds nuw %struct.RelationData, ptr %186, i32 0, i32 14
  %188 = load ptr, ptr %187, align 8
  %189 = call i64 @heap_getattr(ptr noundef %183, i32 noundef %185, ptr noundef %188, ptr noundef %16)
  store i64 %189, ptr %15, align 8
  %190 = load i8, ptr %16, align 1, !range !4, !noundef !5
  %191 = trunc i8 %190 to i1
  br i1 %191, label %213, label %192

192:                                              ; preds = %182
  call void @llvm.lifetime.start.p0(i64 8, ptr %27) #6
  %193 = load i64, ptr %15, align 8
  %194 = call ptr @DatumGetPointer(i64 noundef %193)
  %195 = call ptr @pg_detoast_datum(ptr noundef %194)
  %196 = load i32, ptr %17, align 4
  %197 = load i32, ptr %6, align 4
  %198 = call ptr @aclnewowner(ptr noundef %195, i32 noundef %196, i32 noundef %197)
  store ptr %198, ptr %27, align 8
  %199 = load ptr, ptr %27, align 8
  %200 = call i64 @PointerGetDatum(ptr noundef %199)
  %201 = load ptr, ptr %21, align 8
  %202 = load i16, ptr %11, align 2
  %203 = sext i16 %202 to i32
  %204 = sub i32 %203, 1
  %205 = sext i32 %204 to i64
  %206 = getelementptr inbounds i64, ptr %201, i64 %205
  store i64 %200, ptr %206, align 8
  %207 = load ptr, ptr %23, align 8
  %208 = load i16, ptr %11, align 2
  %209 = sext i16 %208 to i32
  %210 = sub i32 %209, 1
  %211 = sext i32 %210 to i64
  %212 = getelementptr inbounds i8, ptr %207, i64 %211
  store i8 1, ptr %212, align 1
  call void @llvm.lifetime.end.p0(i64 8, ptr %27) #6
  br label %213

213:                                              ; preds = %192, %182
  br label %214

214:                                              ; preds = %213, %147
  %215 = load ptr, ptr %14, align 8
  %216 = load ptr, ptr %13, align 8
  %217 = getelementptr inbounds nuw %struct.RelationData, ptr %216, i32 0, i32 14
  %218 = load ptr, ptr %217, align 8
  %219 = load ptr, ptr %21, align 8
  %220 = load ptr, ptr %22, align 8
  %221 = load ptr, ptr %23, align 8
  %222 = call ptr @heap_modify_tuple(ptr noundef %215, ptr noundef %218, ptr noundef %219, ptr noundef %220, ptr noundef %221)
  store ptr %222, ptr %20, align 8
  %223 = load ptr, ptr %13, align 8
  %224 = load ptr, ptr %20, align 8
  %225 = getelementptr inbounds nuw %struct.HeapTupleData, ptr %224, i32 0, i32 1
  %226 = load ptr, ptr %20, align 8
  call void @CatalogTupleUpdate(ptr noundef %223, ptr noundef %225, ptr noundef %226)
  %227 = load ptr, ptr %13, align 8
  %228 = load ptr, ptr %14, align 8
  %229 = getelementptr inbounds nuw %struct.HeapTupleData, ptr %228, i32 0, i32 1
  call void @UnlockTuple(ptr noundef %227, ptr noundef %229, i32 noundef 7)
  %230 = load i32, ptr %4, align 4
  %231 = load i32, ptr %5, align 4
  %232 = load i32, ptr %6, align 4
  call void @changeDependencyOnOwner(i32 noundef %230, i32 noundef %231, i32 noundef %232)
  %233 = load ptr, ptr %21, align 8
  call void @pfree(ptr noundef %233)
  %234 = load ptr, ptr %22, align 8
  call void @pfree(ptr noundef %234)
  %235 = load ptr, ptr %23, align 8
  call void @pfree(ptr noundef %235)
  call void @llvm.lifetime.end.p0(i64 8, ptr %23) #6
  call void @llvm.lifetime.end.p0(i64 8, ptr %22) #6
  call void @llvm.lifetime.end.p0(i64 8, ptr %21) #6
  call void @llvm.lifetime.end.p0(i64 8, ptr %20) #6
  call void @llvm.lifetime.end.p0(i64 2, ptr %19) #6
  br label %240

236:                                              ; preds = %94
  %237 = load ptr, ptr %13, align 8
  %238 = load ptr, ptr %14, align 8
  %239 = getelementptr inbounds nuw %struct.HeapTupleData, ptr %238, i32 0, i32 1
  call void @UnlockTuple(ptr noundef %237, ptr noundef %239, i32 noundef 7)
  br label %240

240:                                              ; preds = %236, %214
  br label %241

241:                                              ; preds = %240
  %242 = load ptr, ptr @object_access_hook, align 8
  %243 = icmp ne ptr %242, null
  br i1 %243, label %244, label %247

244:                                              ; preds = %241
  %245 = load i32, ptr %4, align 4
  %246 = load i32, ptr %5, align 4
  call void @RunObjectPostAlterHook(i32 noundef %245, i32 noundef %246, i32 noundef 0, i32 noundef 0, i1 noundef zeroext false)
  br label %247

247:                                              ; preds = %244, %241
  br label %248

248:                                              ; preds = %247
  br label %249

249:                                              ; preds = %248
  %250 = load ptr, ptr %13, align 8
  call void @table_close(ptr noundef %250, i32 noundef 3)
  call void @llvm.lifetime.end.p0(i64 4, ptr %18) #6
  call void @llvm.lifetime.end.p0(i64 4, ptr %17) #6
  call void @llvm.lifetime.end.p0(i64 1, ptr %16) #6
  call void @llvm.lifetime.end.p0(i64 8, ptr %15) #6
  call void @llvm.lifetime.end.p0(i64 8, ptr %14) #6
  call void @llvm.lifetime.end.p0(i64 8, ptr %13) #6
  call void @llvm.lifetime.end.p0(i64 2, ptr %12) #6
  call void @llvm.lifetime.end.p0(i64 2, ptr %11) #6
  call void @llvm.lifetime.end.p0(i64 2, ptr %10) #6
  call void @llvm.lifetime.end.p0(i64 2, ptr %9) #6
  call void @llvm.lifetime.end.p0(i64 2, ptr %8) #6
  call void @llvm.lifetime.end.p0(i64 4, ptr %7) #6
  ret void
}