; Function Attrs: nounwind uwtable
define dso_local void @AlterObjectOwner_internal(i32 noundef %0, i32 noundef %1, i32 noundef %2) local_unnamed_addr #0 {
  %4 = alloca i8, align 1
  %5 = alloca [64 x i8], align 16
  %6 = icmp eq i32 %0, 2613
  %7 = select i1 %6, i32 2995, i32 %0
  %8 = tail call signext i16 @get_object_attnum_oid(i32 noundef %7) #8
  %9 = tail call signext i16 @get_object_attnum_owner(i32 noundef %7) #8
  %10 = tail call signext i16 @get_object_attnum_namespace(i32 noundef %7) #8
  %11 = tail call signext i16 @get_object_attnum_acl(i32 noundef %7) #8
  %12 = tail call signext i16 @get_object_attnum_name(i32 noundef %7) #8
  call void @llvm.lifetime.start.p0(i64 1, ptr nonnull %4) #8
  %13 = tail call ptr @table_open(i32 noundef %7, i32 noundef 3) #8
  %14 = tail call ptr @get_catalog_object_by_oid_extended(ptr noundef %13, i16 noundef signext %8, i32 noundef %1, i1 noundef zeroext true) #8
  %15 = icmp eq ptr %14, null
  br i1 %15, label %16, label %22

16:                                               ; preds = %3
  %17 = tail call zeroext i1 @errstart_cold(i32 noundef 21, ptr noundef null) #9
  tail call void @llvm.assume(i1 %17)
  %18 = getelementptr inbounds nuw i8, ptr %13, i64 56
  %19 = load ptr, ptr %18, align 8
  %20 = getelementptr inbounds nuw i8, ptr %19, i64 4
  %21 = tail call i32 (ptr, ...) @errmsg_internal(ptr noundef nonnull @.str.4, i32 noundef %1, ptr noundef nonnull %20) #8
  tail call void @errfinish(ptr noundef nonnull @.str.1, i32 noundef 933, ptr noundef nonnull @__func__.AlterObjectOwner_internal) #8
  unreachable

22:                                               ; preds = %3
  %23 = sext i16 %9 to i32
  %24 = getelementptr inbounds nuw i8, ptr %13, i64 64
  %25 = load ptr, ptr %24, align 8
  %26 = call fastcc i64 @heap_getattr(ptr noundef %14, i32 noundef %23, ptr noundef %25, ptr noundef %4)
  %27 = trunc i64 %26 to i32
  %.not = icmp eq i16 %10, 0
  br i1 %.not, label %33, label %28

28:                                               ; preds = %22
  %29 = sext i16 %10 to i32
  %30 = load ptr, ptr %24, align 8
  %31 = call fastcc i64 @heap_getattr(ptr noundef %14, i32 noundef %29, ptr noundef %30, ptr noundef %4)
  %32 = trunc i64 %31 to i32
  br label %33

33:                                               ; preds = %28, %22
  %.0 = phi i32 [ %32, %28 ], [ 0, %22 ]
  %.not91 = icmp eq i32 %2, %27
  br i1 %.not91, label %90, label %34

34:                                               ; preds = %33
  %35 = call zeroext i1 @superuser() #8
  br i1 %35, label %55, label %36

36:                                               ; preds = %34
  %37 = call i32 @GetUserId() #8
  %38 = call zeroext i1 @has_privs_of_role(i32 noundef %37, i32 noundef %27) #8
  br i1 %38, label %49, label %39

39:                                               ; preds = %36
  call void @llvm.lifetime.start.p0(i64 64, ptr nonnull %5) #8
  %.not92 = icmp eq i16 %12, 0
  br i1 %.not92, label %45, label %40

40:                                               ; preds = %39
  %41 = sext i16 %12 to i32
  %42 = load ptr, ptr %24, align 8
  %43 = call fastcc i64 @heap_getattr(ptr noundef %14, i32 noundef %41, ptr noundef %42, ptr noundef %4)
  %44 = inttoptr i64 %43 to ptr
  br label %47

45:                                               ; preds = %39
  %46 = call i32 (ptr, i64, ptr, ...) @pg_snprintf(ptr noundef nonnull %5, i64 noundef 64, ptr noundef nonnull @.str.5, i32 noundef %1) #8
  br label %47

47:                                               ; preds = %45, %40
  %.083 = phi ptr [ %44, %40 ], [ %5, %45 ]
  %48 = call i32 @get_object_type(i32 noundef %7, i32 noundef %1) #8
  call void @aclcheck_error(i32 noundef 2, i32 noundef %48, ptr noundef %.083) #8
  call void @llvm.lifetime.end.p0(i64 64, ptr nonnull %5) #8
  br label %49

49:                                               ; preds = %47, %36
  %50 = call i32 @GetUserId() #8
  call void @check_can_set_role(i32 noundef %50, i32 noundef %2) #8
  %.not93 = icmp eq i32 %.0, 0
  br i1 %.not93, label %55, label %51

51:                                               ; preds = %49
  %52 = call i32 @object_aclcheck(i32 noundef 2615, i32 noundef %.0, i32 noundef %2, i64 noundef 512) #8
  %.not94 = icmp eq i32 %52, 0
  br i1 %.not94, label %55, label %53

53:                                               ; preds = %51
  %54 = call ptr @get_namespace_name(i32 noundef %.0) #8
  call void @aclcheck_error(i32 noundef %52, i32 noundef 36, ptr noundef %54) #8
  br label %55

55:                                               ; preds = %51, %53, %49, %34
  %56 = getelementptr inbounds nuw i8, ptr %13, i64 56
  %57 = load ptr, ptr %56, align 8
  %58 = getelementptr inbounds nuw i8, ptr %57, i64 116
  %59 = load i16, ptr %58, align 4
  %60 = sext i16 %59 to i64
  %61 = shl nsw i64 %60, 3
  %62 = call ptr @palloc0(i64 noundef %61) #8
  %63 = call ptr @palloc0(i64 noundef %60) #8
  %64 = call ptr @palloc0(i64 noundef %60) #8
  %65 = zext i32 %2 to i64
  %66 = add nsw i32 %23, -1
  %67 = sext i32 %66 to i64
  %68 = getelementptr inbounds i64, ptr %62, i64 %67
  store i64 %65, ptr %68, align 8
  %69 = getelementptr inbounds i8, ptr %64, i64 %67
  store i8 1, ptr %69, align 1
  %70 = sext i16 %11 to i32
  %.not95 = icmp eq i16 %11, 0
  br i1 %.not95, label %85, label %71

71:                                               ; preds = %55
  %72 = load ptr, ptr %24, align 8
  %73 = call fastcc i64 @heap_getattr(ptr noundef %14, i32 noundef %70, ptr noundef %72, ptr noundef %4)
  %74 = load i8, ptr %4, align 1, !range !4, !noundef !5
  %75 = trunc nuw i8 %74 to i1
  br i1 %75, label %85, label %76

76:                                               ; preds = %71
  %77 = inttoptr i64 %73 to ptr
  %78 = call ptr @pg_detoast_datum(ptr noundef %77) #8
  %79 = call ptr @aclnewowner(ptr noundef %78, i32 noundef %27, i32 noundef %2) #8
  %80 = ptrtoint ptr %79 to i64
  %81 = add nsw i32 %70, -1
  %82 = sext i32 %81 to i64
  %83 = getelementptr inbounds i64, ptr %62, i64 %82
  store i64 %80, ptr %83, align 8
  %84 = getelementptr inbounds i8, ptr %64, i64 %82
  store i8 1, ptr %84, align 1
  br label %85

85:                                               ; preds = %71, %76, %55
  %86 = load ptr, ptr %24, align 8
  %87 = call ptr @heap_modify_tuple(ptr noundef nonnull %14, ptr noundef %86, ptr noundef nonnull %62, ptr noundef %63, ptr noundef nonnull %64) #8
  %88 = getelementptr inbounds nuw i8, ptr %87, i64 4
  call void @CatalogTupleUpdate(ptr noundef nonnull %13, ptr noundef nonnull %88, ptr noundef %87) #8
  %89 = getelementptr inbounds nuw i8, ptr %14, i64 4
  call void @UnlockTuple(ptr noundef nonnull %13, ptr noundef nonnull %89, i32 noundef 7) #8
  call void @changeDependencyOnOwner(i32 noundef %0, i32 noundef %1, i32 noundef %2) #8
  call void @pfree(ptr noundef nonnull %62) #8
  call void @pfree(ptr noundef %63) #8
  call void @pfree(ptr noundef nonnull %64) #8
  br label %92

90:                                               ; preds = %33
  %91 = getelementptr inbounds nuw i8, ptr %14, i64 4
  call void @UnlockTuple(ptr noundef nonnull %13, ptr noundef nonnull %91, i32 noundef 7) #8
  br label %92

92:                                               ; preds = %85, %90
  %93 = load ptr, ptr @object_access_hook, align 8
  %.not96 = icmp eq ptr %93, null
  br i1 %.not96, label %95, label %94

94:                                               ; preds = %92
  call void @RunObjectPostAlterHook(i32 noundef %0, i32 noundef %1, i32 noundef 0, i32 noundef 0, i1 noundef zeroext false) #8
  br label %95

95:                                               ; preds = %94, %92
  call void @table_close(ptr noundef nonnull %13, i32 noundef 3) #8
  call void @llvm.lifetime.end.p0(i64 1, ptr nonnull %4) #8
  ret void
}